; Function Attrs: mustprogress uwtable
define noundef zeroext i1 @_ZN4base8internal13ReadProcStatsEiPNSt7__cxx1112basic_stringIcSt11char_traitsIcESaIcEEE(i32 noundef %0, ptr noundef %1) local_unnamed_addr #0 personality ptr @__gxx_personality_v0 {
  %3 = alloca %"class.base::FilePath", align 8
  %4 = alloca %"class.base::FilePath", align 8
  call void @llvm.lifetime.start.p0(i64 32, ptr nonnull %3) #18
  call void @llvm.lifetime.start.p0(i64 32, ptr nonnull %4) #18
  call void @_ZN4base8internal13GetProcPidDirEi(ptr dead_on_unwind nonnull writable sret(%"class.base::FilePath") align 8 %4, i32 noundef %0)
  invoke void @_ZNK4base8FilePath6AppendENS_16BasicStringPieceINSt7__cxx1112basic_stringIcSt11char_traitsIcESaIcEEEEE(ptr dead_on_unwind nonnull writable sret(%"class.base::FilePath") align 8 %3, ptr noundef nonnull align 8 dereferenceable(32) %4, ptr nonnull @_ZN4base8internal9kStatFileE, i64 4)
          to label %5 unwind label %12

5:                                                ; preds = %2
  call void @_ZN4base8FilePathD1Ev(ptr noundef nonnull align 8 dereferenceable(32) %4) #18
  call void @llvm.lifetime.end.p0(i64 32, ptr nonnull %4) #18
  %6 = getelementptr inbounds nuw i8, ptr %1, i64 8
  store i64 0, ptr %6, align 8, !tbaa !11
  %7 = load ptr, ptr %1, align 8, !tbaa !3
  store i8 0, ptr %7, align 1, !tbaa !12
  %8 = invoke noundef zeroext i1 @_ZN4base16ReadFileToStringERKNS_8FilePathEPNSt7__cxx1112basic_stringIcSt11char_traitsIcESaIcEEE(ptr noundef nonnull align 8 dereferenceable(32) %3, ptr noundef nonnull %1)
          to label %.noexc unwind label %14

.noexc:                                           ; preds = %5
  br i1 %8, label %9, label %_ZN4base8internal12ReadProcFileERKNS_8FilePathEPNSt7__cxx1112basic_stringIcSt11char_traitsIcESaIcEEE.exit

9:                                                ; preds = %.noexc
  %10 = load i64, ptr %6, align 8, !tbaa !11
  %11 = icmp ne i64 %10, 0
  br label %_ZN4base8internal12ReadProcFileERKNS_8FilePathEPNSt7__cxx1112basic_stringIcSt11char_traitsIcESaIcEEE.exit

_ZN4base8internal12ReadProcFileERKNS_8FilePathEPNSt7__cxx1112basic_stringIcSt11char_traitsIcESaIcEEE.exit: ; preds = %9, %.noexc
  %.0.i = phi i1 [ %11, %9 ], [ false, %.noexc ]
  call void @_ZN4base8FilePathD1Ev(ptr noundef nonnull align 8 dereferenceable(32) %3) #18
  call void @llvm.lifetime.end.p0(i64 32, ptr nonnull %3) #18
  ret i1 %.0.i

12:                                               ; preds = %2
  %13 = landingpad { ptr, i32 }
          cleanup
  call void @_ZN4base8FilePathD1Ev(ptr noundef nonnull align 8 dereferenceable(32) %4) #18
  call void @llvm.lifetime.end.p0(i64 32, ptr nonnull %4) #18
  br label %16

14:                                               ; preds = %5
  %15 = landingpad { ptr, i32 }
          cleanup
  call void @_ZN4base8FilePathD1Ev(ptr noundef nonnull align 8 dereferenceable(32) %3) #18
  br label %16

16:                                               ; preds = %14, %12
  %.pn = phi { ptr, i32 } [ %15, %14 ], [ %13, %12 ]
  call void @llvm.lifetime.end.p0(i64 32, ptr nonnull %3) #18
  resume { ptr, i32 } %.pn
}